; ModuleID = '46/270.c'
source_filename = "46/270.c"
target datalayout = "e-m:e-p270:32:32-p271:32:32-p272:64:64-i64:64-f80:128-n8:16:32:64-S128"
target triple = "x86_64-pc-linux-gnu"

@.str = private unnamed_addr constant [6 x i8] c"%d %d\00", align 1
@.str.1 = private unnamed_addr constant [3 x i8] c"%d\00", align 1
@.str.2 = private unnamed_addr constant [4 x i8] c"%d\0A\00", align 1

; Function Attrs: noinline nounwind uwtable
define dso_local i32 @main() #0 {
  %1 = alloca i32, align 4
  %2 = alloca i32, align 4
  %3 = alloca i32, align 4
  %4 = alloca [100 x [100 x i32]], align 16
  %5 = alloca i32, align 4
  %6 = alloca i32, align 4
  %7 = alloca i32, align 4
  %8 = alloca i32, align 4
  %9 = alloca i32, align 4
  %10 = alloca i32, align 4
  %11 = alloca i32, align 4
  store i32 0, i32* %1, align 4
  %12 = call i32 (i8*, ...) @__isoc99_scanf(i8* getelementptr inbounds ([6 x i8], [6 x i8]* @.str, i64 0, i64 0), i32* %2, i32* %3)
  store i32 0, i32* %5, align 4
  br label %13

13:                                               ; preds = %34, %0
  %14 = load i32, i32* %5, align 4
  %15 = load i32, i32* %2, align 4
  %16 = icmp slt i32 %14, %15
  br i1 %16, label %17, label %37

17:                                               ; preds = %13
  store i32 0, i32* %6, align 4
  br label %18

18:                                               ; preds = %30, %17
  %19 = load i32, i32* %6, align 4
  %20 = load i32, i32* %3, align 4
  %21 = icmp slt i32 %19, %20
  br i1 %21, label %22, label %33

22:                                               ; preds = %18
  %23 = load i32, i32* %5, align 4
  %24 = sext i32 %23 to i64
  %25 = getelementptr inbounds [100 x [100 x i32]], [100 x [100 x i32]]* %4, i64 0, i64 %24
  %26 = load i32, i32* %6, align 4
  %27 = sext i32 %26 to i64
  %28 = getelementptr inbounds [100 x i32], [100 x i32]* %25, i64 0, i64 %27
  %29 = call i32 (i8*, ...) @__isoc99_scanf(i8* getelementptr inbounds ([3 x i8], [3 x i8]* @.str.1, i64 0, i64 0), i32* %28)
  br label %30

30:                                               ; preds = %22
  %31 = load i32, i32* %6, align 4
  %32 = add nsw i32 %31, 1
  store i32 %32, i32* %6, align 4
  br label %18

33:                                               ; preds = %18
  br label %34

34:                                               ; preds = %33
  %35 = load i32, i32* %5, align 4
  %36 = add nsw i32 %35, 1
  store i32 %36, i32* %5, align 4
  br label %13

37:                                               ; preds = %13
  store i32 0, i32* %9, align 4
  %38 = load i32, i32* %2, align 4
  %39 = sitofp i32 %38 to double
  %40 = fmul double 1.000000e+00, %39
  %41 = fdiv double %40, 2.000000e+00
  %42 = call double @llvm.ceil.f64(double %41)
  %43 = fptosi double %42 to i32
  store i32 %43, i32* %10, align 4
  %44 = load i32, i32* %3, align 4
  %45 = sitofp i32 %44 to double
  %46 = fmul double 1.000000e+00, %45
  %47 = fdiv double %46, 2.000000e+00
  %48 = call double @llvm.ceil.f64(double %47)
  %49 = fptosi double %48 to i32
  store i32 %49, i32* %11, align 4
  %50 = load i32, i32* %10, align 4
  %51 = load i32, i32* %11, align 4
  %52 = icmp slt i32 %50, %51
  br i1 %52, label %53, label %55

53:                                               ; preds = %37
  %54 = load i32, i32* %10, align 4
  store i32 %54, i32* %8, align 4
  br label %57

55:                                               ; preds = %37
  %56 = load i32, i32* %11, align 4
  store i32 %56, i32* %8, align 4
  br label %57

57:                                               ; preds = %55, %53
  store i32 0, i32* %7, align 4
  br label %58

58:                                               ; preds = %188, %57
  %59 = load i32, i32* %7, align 4
  %60 = load i32, i32* %8, align 4
  %61 = icmp slt i32 %59, %60
  br i1 %61, label %62, label %191

62:                                               ; preds = %58
  %63 = load i32, i32* %7, align 4
  store i32 %63, i32* %6, align 4
  br label %64

64:                                               ; preds = %88, %62
  %65 = load i32, i32* %6, align 4
  %66 = load i32, i32* %3, align 4
  %67 = load i32, i32* %7, align 4
  %68 = sub nsw i32 %66, %67
  %69 = icmp slt i32 %65, %68
  br i1 %69, label %70, label %91

70:                                               ; preds = %64
  %71 = load i32, i32* %9, align 4
  %72 = load i32, i32* %2, align 4
  %73 = load i32, i32* %3, align 4
  %74 = mul nsw i32 %72, %73
  %75 = icmp slt i32 %71, %74
  br i1 %75, label %76, label %87

76:                                               ; preds = %70
  %77 = load i32, i32* %7, align 4
  %78 = sext i32 %77 to i64
  %79 = getelementptr inbounds [100 x [100 x i32]], [100 x [100 x i32]]* %4, i64 0, i64 %78
  %80 = load i32, i32* %6, align 4
  %81 = sext i32 %80 to i64
  %82 = getelementptr inbounds [100 x i32], [100 x i32]* %79, i64 0, i64 %81
  %83 = load i32, i32* %82, align 4
  %84 = call i32 (i8*, ...) @printf(i8* getelementptr inbounds ([4 x i8], [4 x i8]* @.str.2, i64 0, i64 0), i32 %83)
  %85 = load i32, i32* %9, align 4
  %86 = add nsw i32 %85, 1
  store i32 %86, i32* %9, align 4
  br label %87

87:                                               ; preds = %76, %70
  br label %88

88:                                               ; preds = %87
  %89 = load i32, i32* %6, align 4
  %90 = add nsw i32 %89, 1
  store i32 %90, i32* %6, align 4
  br label %64

91:                                               ; preds = %64
  %92 = load i32, i32* %7, align 4
  %93 = add nsw i32 %92, 1
  store i32 %93, i32* %5, align 4
  br label %94

94:                                               ; preds = %121, %91
  %95 = load i32, i32* %5, align 4
  %96 = load i32, i32* %2, align 4
  %97 = load i32, i32* %7, align 4
  %98 = sub nsw i32 %96, %97
  %99 = icmp slt i32 %95, %98
  br i1 %99, label %100, label %124

100:                                              ; preds = %94
  %101 = load i32, i32* %9, align 4
  %102 = load i32, i32* %2, align 4
  %103 = load i32, i32* %3, align 4
  %104 = mul nsw i32 %102, %103
  %105 = icmp slt i32 %101, %104
  br i1 %105, label %106, label %120

106:                                              ; preds = %100
  %107 = load i32, i32* %5, align 4
  %108 = sext i32 %107 to i64
  %109 = getelementptr inbounds [100 x [100 x i32]], [100 x [100 x i32]]* %4, i64 0, i64 %108
  %110 = load i32, i32* %3, align 4
  %111 = load i32, i32* %7, align 4
  %112 = sub nsw i32 %110, %111
  %113 = sub nsw i32 %112, 1
  %114 = sext i32 %113 to i64
  %115 = getelementptr inbounds [100 x i32], [100 x i32]* %109, i64 0, i64 %114
  %116 = load i32, i32* %115, align 4
  %117 = call i32 (i8*, ...) @printf(i8* getelementptr inbounds ([4 x i8], [4 x i8]* @.str.2, i64 0, i64 0), i32 %116)
  %118 = load i32, i32* %9, align 4
  %119 = add nsw i32 %118, 1
  store i32 %119, i32* %9, align 4
  br label %120

120:                                              ; preds = %106, %100
  br label %121

121:                                              ; preds = %120
  %122 = load i32, i32* %5, align 4
  %123 = add nsw i32 %122, 1
  store i32 %123, i32* %5, align 4
  br label %94

124:                                              ; preds = %94
  %125 = load i32, i32* %3, align 4
  %126 = load i32, i32* %7, align 4
  %127 = sub nsw i32 %125, %126
  %128 = sub nsw i32 %127, 2
  store i32 %128, i32* %6, align 4
  br label %129

129:                                              ; preds = %154, %124
  %130 = load i32, i32* %6, align 4
  %131 = load i32, i32* %7, align 4
  %132 = icmp sge i32 %130, %131
  br i1 %132, label %133, label %157

133:                                              ; preds = %129
  %134 = load i32, i32* %9, align 4
  %135 = load i32, i32* %2, align 4
  %136 = load i32, i32* %3, align 4
  %137 = mul nsw i32 %135, %136
  %138 = icmp slt i32 %134, %137
  br i1 %138, label %139, label %153

139:                                              ; preds = %133
  %140 = load i32, i32* %2, align 4
  %141 = load i32, i32* %7, align 4
  %142 = sub nsw i32 %140, %141
  %143 = sub nsw i32 %142, 1
  %144 = sext i32 %143 to i64
  %145 = getelementptr inbounds [100 x [100 x i32]], [100 x [100 x i32]]* %4, i64 0, i64 %144
  %146 = load i32, i32* %6, align 4
  %147 = sext i32 %146 to i64
  %148 = getelementptr inbounds [100 x i32], [100 x i32]* %145, i64 0, i64 %147
  %149 = load i32, i32* %148, align 4
  %150 = call i32 (i8*, ...) @printf(i8* getelementptr inbounds ([4 x i8], [4 x i8]* @.str.2, i64 0, i64 0), i32 %149)
  %151 = load i32, i32* %9, align 4
  %152 = add nsw i32 %151, 1
  store i32 %152, i32* %9, align 4
  br label %153

153:                                              ; preds = %139, %133
  br label %154

154:                                              ; preds = %153
  %155 = load i32, i32* %6, align 4
  %156 = add nsw i32 %155, -1
  store i32 %156, i32* %6, align 4
  br label %129

157:                                              ; preds = %129
  %158 = load i32, i32* %2, align 4
  %159 = load i32, i32* %7, align 4
  %160 = sub nsw i32 %158, %159
  %161 = sub nsw i32 %160, 2
  store i32 %161, i32* %5, align 4
  br label %162

162:                                              ; preds = %184, %157
  %163 = load i32, i32* %5, align 4
  %164 = load i32, i32* %7, align 4
  %165 = icmp sgt i32 %163, %164
  br i1 %165, label %166, label %187

166:                                              ; preds = %162
  %167 = load i32, i32* %9, align 4
  %168 = load i32, i32* %2, align 4
  %169 = load i32, i32* %3, align 4
  %170 = mul nsw i32 %168, %169
  %171 = icmp slt i32 %167, %170
  br i1 %171, label %172, label %183

172:                                              ; preds = %166
  %173 = load i32, i32* %5, align 4
  %174 = sext i32 %173 to i64
  %175 = getelementptr inbounds [100 x [100 x i32]], [100 x [100 x i32]]* %4, i64 0, i64 %174
  %176 = load i32, i32* %7, align 4
  %177 = sext i32 %176 to i64
  %178 = getelementptr inbounds [100 x i32], [100 x i32]* %175, i64 0, i64 %177
  %179 = load i32, i32* %178, align 4
  %180 = call i32 (i8*, ...) @printf(i8* getelementptr inbounds ([4 x i8], [4 x i8]* @.str.2, i64 0, i64 0), i32 %179)
  %181 = load i32, i32* %9, align 4
  %182 = add nsw i32 %181, 1
  store i32 %182, i32* %9, align 4
  br label %183

183:                                              ; preds = %172, %166
  br label %184

184:                                              ; preds = %183
  %185 = load i32, i32* %5, align 4
  %186 = add nsw i32 %185, -1
  store i32 %186, i32* %5, align 4
  br label %162

187:                                              ; preds = %162
  br label %188

188:                                              ; preds = %187
  %189 = load i32, i32* %7, align 4
  %190 = add nsw i32 %189, 1
  store i32 %190, i32* %7, align 4
  br label %58

191:                                              ; preds = %58
  ret i32 0
}

declare dso_local i32 @__isoc99_scanf(i8*, ...) #1

; Function Attrs: nounwind readnone speculatable willreturn
declare double @llvm.ceil.f64(double) #2

declare dso_local i32 @printf(i8*, ...) #1


!llvm.module.flags = !{!0}
!llvm.ident = !{!1}

!0 = !{i32 1, !"wchar_size", i32 4}
!1 = !{!"clang version 10.0.0-4ubuntu1 "}
